; Function Attrs: mustprogress nofree norecurse nosync nounwind willreturn memory(argmem: readwrite) uwtable
define internal range(i32 -1, 60) i32 @condSect1(ptr noundef captures(none) %0, i32 noundef %1, ptr readnone captures(none) %2, ptr readnone captures(none) %3, ptr readnone captures(none) %4) #2 {
  switch i32 %1, label %10 [
    i32 15, label %common.exit
    i32 25, label %6
  ]

6:                                                ; preds = %5
  store ptr @externalSubset1, ptr %0, align 8, !tbaa !3
  %7 = getelementptr inbounds nuw i8, ptr %0, i64 16
  %8 = load i32, ptr %7, align 8, !tbaa !10
  %9 = add i32 %8, 1
  store i32 %9, ptr %7, align 8, !tbaa !10
  br label %common.exit

10:                                               ; preds = %5
  %11 = getelementptr inbounds nuw i8, ptr %0, i64 20
  %12 = load i32, ptr %11, align 4, !tbaa !9
  %13 = icmp eq i32 %12, 0
  %14 = icmp eq i32 %1, 28
  %or.cond.i = and i1 %14, %13
  br i1 %or.cond.i, label %common.exit, label %15

15:                                               ; preds = %10
  store ptr @error, ptr %0, align 8, !tbaa !3
  br label %common.exit

common.exit:                                      ; preds = %15, %10, %5, %6
  %.0 = phi i32 [ 0, %6 ], [ 0, %5 ], [ -1, %15 ], [ 59, %10 ]
  ret i32 %.0
}